; ModuleID = 'source-C-CXX/50/224.c'
source_filename = "source-C-CXX/50/224.c"
target datalayout = "e-m:e-p270:32:32-p271:32:32-p272:64:64-i64:64-f80:128-n8:16:32:64-S128"
target triple = "x86_64-pc-linux-gnu"

@.str = private unnamed_addr constant [4 x i8] c"%d\0A\00", align 1
@.str.1 = private unnamed_addr constant [3 x i8] c"NO\00", align 1

; Function Attrs: nounwind sspstrong uwtable
define dso_local i32 @main() local_unnamed_addr #0 {
  %1 = alloca [500 x i8], align 16
  %2 = alloca [500 x [5 x i8]], align 16
  %3 = alloca i32, align 4
  %4 = alloca [500 x i32], align 16
  %5 = getelementptr inbounds [500 x i8], [500 x i8]* %1, i64 0, i64 0
  call void @llvm.lifetime.start.p0i8(i64 500, i8* nonnull %5) #8
  %6 = getelementptr inbounds [500 x [5 x i8]], [500 x [5 x i8]]* %2, i64 0, i64 0, i64 0
  call void @llvm.lifetime.start.p0i8(i64 2500, i8* nonnull %6) #8
  call void @llvm.memset.p0i8.i64(i8* noundef nonnull align 16 dereferenceable(2500) %6, i8 0, i64 2500, i1 false)
  %7 = bitcast i32* %3 to i8*
  call void @llvm.lifetime.start.p0i8(i64 4, i8* nonnull %7) #8
  %8 = bitcast [500 x i32]* %4 to i8*
  call void @llvm.lifetime.start.p0i8(i64 2000, i8* nonnull %8) #8
  call void @llvm.memset.p0i8.i64(i8* noundef nonnull align 16 dereferenceable(2000) %8, i8 0, i64 2000, i1 false)
  %9 = call i32 (i8*, ...) @__isoc99_scanf(i8* getelementptr inbounds ([4 x i8], [4 x i8]* @.str, i64 0, i64 0), i32* nonnull %3)
  %10 = call i32 (i8*, ...) bitcast (i32 (...)* @gets to i32 (i8*, ...)*)(i8* nonnull %5) #8
  %11 = call i64 @strlen(i8* noundef nonnull %5) #9
  %12 = trunc i64 %11 to i32
  %13 = load i32, i32* %3, align 4, !tbaa !5
  %14 = sub i32 %12, %13
  %15 = icmp slt i32 %14, 0
  br i1 %15, label %88, label %16

16:                                               ; preds = %0
  %17 = icmp sgt i32 %13, 0
  br i1 %17, label %18, label %56

18:                                               ; preds = %16
  %19 = zext i32 %13 to i64
  %20 = add i32 %12, 1
  %21 = sub i32 %20, %13
  %22 = zext i32 %21 to i64
  %23 = add nsw i64 %22, -1
  %24 = and i64 %22, 3
  %25 = icmp ult i64 %23, 3
  br i1 %25, label %45, label %26

26:                                               ; preds = %18
  %27 = and i64 %22, 4294967292
  br label %28

28:                                               ; preds = %28, %26
  %29 = phi i64 [ 0, %26 ], [ %42, %28 ]
  %30 = phi i64 [ %27, %26 ], [ %43, %28 ]
  %31 = getelementptr [500 x [5 x i8]], [500 x [5 x i8]]* %2, i64 0, i64 %29, i64 0
  %32 = getelementptr [500 x i8], [500 x i8]* %1, i64 0, i64 %29
  call void @llvm.memcpy.p0i8.p0i8.i64(i8* align 4 %31, i8* align 4 %32, i64 %19, i1 false)
  %33 = or i64 %29, 1
  %34 = getelementptr [500 x [5 x i8]], [500 x [5 x i8]]* %2, i64 0, i64 %33, i64 0
  %35 = getelementptr [500 x i8], [500 x i8]* %1, i64 0, i64 %33
  call void @llvm.memcpy.p0i8.p0i8.i64(i8* align 1 %34, i8* align 1 %35, i64 %19, i1 false)
  %36 = or i64 %29, 2
  %37 = getelementptr [500 x [5 x i8]], [500 x [5 x i8]]* %2, i64 0, i64 %36, i64 0
  %38 = getelementptr [500 x i8], [500 x i8]* %1, i64 0, i64 %36
  call void @llvm.memcpy.p0i8.p0i8.i64(i8* align 2 %37, i8* align 2 %38, i64 %19, i1 false)
  %39 = or i64 %29, 3
  %40 = getelementptr [500 x [5 x i8]], [500 x [5 x i8]]* %2, i64 0, i64 %39, i64 0
  %41 = getelementptr [500 x i8], [500 x i8]* %1, i64 0, i64 %39
  call void @llvm.memcpy.p0i8.p0i8.i64(i8* align 1 %40, i8* align 1 %41, i64 %19, i1 false)
  %42 = add nuw nsw i64 %29, 4
  %43 = add i64 %30, -4
  %44 = icmp eq i64 %43, 0
  br i1 %44, label %45, label %28, !llvm.loop !9

45:                                               ; preds = %28, %18
  %46 = phi i64 [ 0, %18 ], [ %42, %28 ]
  %47 = icmp eq i64 %24, 0
  br i1 %47, label %56, label %48

48:                                               ; preds = %45, %48
  %49 = phi i64 [ %53, %48 ], [ %46, %45 ]
  %50 = phi i64 [ %54, %48 ], [ %24, %45 ]
  %51 = getelementptr [500 x [5 x i8]], [500 x [5 x i8]]* %2, i64 0, i64 %49, i64 0
  %52 = getelementptr [500 x i8], [500 x i8]* %1, i64 0, i64 %49
  call void @llvm.memcpy.p0i8.p0i8.i64(i8* align 1 %51, i8* align 1 %52, i64 %19, i1 false)
  %53 = add nuw nsw i64 %49, 1
  %54 = add i64 %50, -1
  %55 = icmp eq i64 %54, 0
  br i1 %55, label %56, label %48, !llvm.loop !11

56:                                               ; preds = %45, %48, %16
  %57 = icmp sgt i32 %14, 0
  br i1 %57, label %58, label %88

58:                                               ; preds = %56
  %59 = zext i32 %14 to i64
  %60 = zext i32 %14 to i64
  br label %64

61:                                               ; preds = %82
  %62 = add nuw nsw i64 %66, 1
  %63 = icmp eq i64 %68, %60
  br i1 %63, label %86, label %64, !llvm.loop !13

64:                                               ; preds = %61, %58
  %65 = phi i64 [ 0, %58 ], [ %68, %61 ]
  %66 = phi i64 [ 1, %58 ], [ %62, %61 ]
  %67 = phi i32 [ -1, %58 ], [ %83, %61 ]
  %68 = add nuw nsw i64 %65, 1
  %69 = getelementptr inbounds [500 x [5 x i8]], [500 x [5 x i8]]* %2, i64 0, i64 %65, i64 0
  %70 = getelementptr inbounds [500 x i32], [500 x i32]* %4, i64 0, i64 %65
  br label %71

71:                                               ; preds = %64, %82
  %72 = phi i64 [ %66, %64 ], [ %84, %82 ]
  %73 = phi i32 [ %67, %64 ], [ %83, %82 ]
  %74 = getelementptr inbounds [500 x [5 x i8]], [500 x [5 x i8]]* %2, i64 0, i64 %72, i64 0
  %75 = call i32 @strcmp(i8* noundef nonnull %69, i8* noundef nonnull %74) #9
  %76 = icmp eq i32 %75, 0
  br i1 %76, label %77, label %82

77:                                               ; preds = %71
  %78 = load i32, i32* %70, align 4, !tbaa !5
  %79 = add nsw i32 %78, 1
  store i32 %79, i32* %70, align 4, !tbaa !5
  %80 = icmp slt i32 %78, %73
  %81 = select i1 %80, i32 %73, i32 %79
  br label %82

82:                                               ; preds = %77, %71
  %83 = phi i32 [ %73, %71 ], [ %81, %77 ]
  %84 = add nuw nsw i64 %72, 1
  %85 = icmp ult i64 %72, %59
  br i1 %85, label %71, label %61, !llvm.loop !14

86:                                               ; preds = %61
  %87 = icmp eq i32 %83, -1
  br i1 %87, label %88, label %90

88:                                               ; preds = %0, %56, %86
  %89 = call i32 (i8*, ...) @printf(i8* nonnull dereferenceable(1) getelementptr inbounds ([3 x i8], [3 x i8]* @.str.1, i64 0, i64 0))
  br label %111

90:                                               ; preds = %86
  %91 = add nuw nsw i32 %83, 1
  %92 = call i32 (i8*, ...) @printf(i8* nonnull dereferenceable(1) getelementptr inbounds ([4 x i8], [4 x i8]* @.str, i64 0, i64 0), i32 %91)
  %93 = load i32, i32* %3, align 4, !tbaa !5
  %94 = icmp sgt i32 %93, %12
  br i1 %94, label %111, label %95

95:                                               ; preds = %90, %105
  %96 = phi i32 [ %106, %105 ], [ %93, %90 ]
  %97 = phi i64 [ %107, %105 ], [ 0, %90 ]
  %98 = getelementptr inbounds [500 x i32], [500 x i32]* %4, i64 0, i64 %97
  %99 = load i32, i32* %98, align 4, !tbaa !5
  %100 = icmp eq i32 %99, %83
  br i1 %100, label %101, label %105

101:                                              ; preds = %95
  %102 = getelementptr inbounds [500 x [5 x i8]], [500 x [5 x i8]]* %2, i64 0, i64 %97, i64 0
  %103 = call i32 @puts(i8* nonnull %102)
  %104 = load i32, i32* %3, align 4, !tbaa !5
  br label %105

105:                                              ; preds = %95, %101
  %106 = phi i32 [ %96, %95 ], [ %104, %101 ]
  %107 = add nuw nsw i64 %97, 1
  %108 = sub nsw i32 %12, %106
  %109 = sext i32 %108 to i64
  %110 = icmp slt i64 %97, %109
  br i1 %110, label %95, label %111, !llvm.loop !15

111:                                              ; preds = %105, %90, %88
  call void @llvm.lifetime.end.p0i8(i64 2000, i8* nonnull %8) #8
  call void @llvm.lifetime.end.p0i8(i64 4, i8* nonnull %7) #8
  call void @llvm.lifetime.end.p0i8(i64 2500, i8* nonnull %6) #8
  call void @llvm.lifetime.end.p0i8(i64 500, i8* nonnull %5) #8
  ret i32 0
}

; Function Attrs: argmemonly mustprogress nofree nosync nounwind willreturn
declare void @llvm.lifetime.start.p0i8(i64 immarg, i8* nocapture) #1

; Function Attrs: argmemonly mustprogress nofree nounwind willreturn writeonly
declare void @llvm.memset.p0i8.i64(i8* nocapture writeonly, i8, i64, i1 immarg) #2

; Function Attrs: nofree nounwind
declare noundef i32 @__isoc99_scanf(i8* nocapture noundef readonly, ...) local_unnamed_addr #3

declare i32 @gets(...) local_unnamed_addr #4

; Function Attrs: argmemonly mustprogress nofree nounwind readonly willreturn
declare i64 @strlen(i8* nocapture) local_unnamed_addr #5

; Function Attrs: argmemonly mustprogress nofree nounwind readonly willreturn
declare i32 @strcmp(i8* nocapture, i8* nocapture) local_unnamed_addr #5

; Function Attrs: nofree nounwind
declare noundef i32 @printf(i8* nocapture noundef readonly, ...) local_unnamed_addr #3

; Function Attrs: argmemonly mustprogress nofree nosync nounwind willreturn
declare void @llvm.lifetime.end.p0i8(i64 immarg, i8* nocapture) #1

; Function Attrs: nofree nounwind
declare noundef i32 @puts(i8* nocapture noundef readonly) local_unnamed_addr #6

; Function Attrs: argmemonly nofree nounwind willreturn
declare void @llvm.memcpy.p0i8.p0i8.i64(i8* noalias nocapture writeonly, i8* noalias nocapture readonly, i64, i1 immarg) #7


!llvm.module.flags = !{!0, !1, !2, !3}
!llvm.ident = !{!4}

!0 = !{i32 1, !"wchar_size", i32 4}
!1 = !{i32 7, !"PIC Level", i32 2}
!2 = !{i32 7, !"PIE Level", i32 2}
!3 = !{i32 7, !"uwtable", i32 1}
!4 = !{!"clang version 13.0.0"}
!5 = !{!6, !6, i64 0}
!6 = !{!"int", !7, i64 0}
!7 = !{!"omnipotent char", !8, i64 0}
!8 = !{!"Simple C/C++ TBAA"}
!9 = distinct !{!9, !10}
!10 = !{!"llvm.loop.mustprogress"}
!11 = distinct !{!11, !12}
!12 = !{!"llvm.loop.unroll.disable"}
!13 = distinct !{!13, !10}
!14 = distinct !{!14, !10}
!15 = distinct !{!15, !10}
